; Function Attrs: mustprogress nounwind uwtable
define internal fastcc noundef ptr @_ZL27is_inner_of_stripmined_loopPK4Node(ptr noundef %0) unnamed_addr #0 {
  %2 = getelementptr inbounds i8, ptr %0, i64 44
  %3 = load i32, ptr %2, align 4
  %4 = and i32 %3, 127
  %5 = icmp eq i32 %4, 117
  br i1 %5, label %6, label %21

6:                                                ; preds = %1
  %7 = tail call noundef ptr @_ZNK22BaseCountedLoopEndNode8loopnodeEv(ptr noundef nonnull align 8 dereferenceable(60) %0)
  %.not = icmp eq ptr %7, null
  br i1 %.not, label %21, label %8

8:                                                ; preds = %6
  %9 = getelementptr inbounds i8, ptr %7, i64 60
  %10 = load i32, ptr %9, align 4
  %11 = and i32 %10, 4096
  %.not7 = icmp eq i32 %11, 0
  br i1 %.not7, label %21, label %12

12:                                               ; preds = %8
  %13 = getelementptr inbounds i8, ptr %7, i64 8
  %14 = load ptr, ptr %13, align 8
  %15 = getelementptr inbounds i8, ptr %14, i64 8
  %16 = load ptr, ptr %15, align 8
  %17 = load ptr, ptr %16, align 8
  %18 = getelementptr inbounds i8, ptr %17, i64 216
  %19 = load ptr, ptr %18, align 8
  %20 = tail call noundef ptr %19(ptr noundef nonnull align 8 dereferenceable(72) %16) #9
  br label %21

21:                                               ; preds = %6, %8, %12, %1
  %.0 = phi ptr [ %20, %12 ], [ null, %8 ], [ null, %6 ], [ null, %1 ]
  ret ptr %.0
}